; Function Attrs: mustprogress nofree norecurse nosync nounwind willreturn memory(none) uwtable
define { i64, i64 } @ZSTD_dParam_getBounds(i32 noundef %0) local_unnamed_addr #2 {
  switch i32 %0, label %4 [
    i32 100, label %5
    i32 1000, label %2
    i32 1001, label %2
    i32 1002, label %2
    i32 1003, label %2
    i32 1004, label %2
    i32 1005, label %3
  ]

2:                                                ; preds = %1, %1, %1, %1, %1
  br label %5

3:                                                ; preds = %1
  br label %5

4:                                                ; preds = %1
  br label %5

5:                                                ; preds = %1, %4, %3, %2
  %.sroa.3.0 = phi i64 [ 0, %4 ], [ 562949953422336, %3 ], [ 4294967296, %2 ], [ 133143986186, %1 ]
  %.sroa.0.0 = phi i64 [ -40, %4 ], [ 0, %3 ], [ 0, %2 ], [ 0, %1 ]
  %.fca.0.insert = insertvalue { i64, i64 } poison, i64 %.sroa.0.0, 0
  %.fca.1.insert = insertvalue { i64, i64 } %.fca.0.insert, i64 %.sroa.3.0, 1
  ret { i64, i64 } %.fca.1.insert
}